target datalayout = "e-m:e-p270:32:32-p271:32:32-p272:64:64-i64:64-i128:128-f80:128-n8:16:32:64-S128"
target triple = "x86_64-pc-linux-gnu"

%struct.Abc_Ntk_t_ = type { i32, i32, ptr, ptr, ptr, ptr, ptr, ptr, ptr, ptr, ptr, ptr, ptr, [11 x i32], i32, i32, i32, i32, ptr, i32, ptr, ptr, i32, i32, i32, double, i32, %struct.Vec_Int_t_, ptr, ptr, ptr, ptr, ptr, float, i32, ptr, ptr, ptr, ptr, ptr, ptr, ptr, ptr, ptr, ptr, ptr, ptr, ptr, ptr, ptr, ptr, ptr, ptr, ptr, ptr, ptr, ptr }
%struct.Vec_Int_t_ = type { i32, i32, ptr }
%struct.Vec_Ptr_t_ = type { i32, i32, ptr }
%struct.Abc_Obj_t_ = type { ptr, ptr, i32, i32, %struct.Vec_Int_t_, %struct.Vec_Int_t_, %union.anon, %union.anon.0 }
%union.anon = type { ptr }
%union.anon.0 = type { ptr }

; Function Attrs: inlinehint nounwind uwtable
define internal void @Vec_IntWriteEntry(ptr noundef %0, i32 noundef %1, i32 noundef %2) #2 {
  %4 = alloca ptr, align 8
  %5 = alloca i32, align 4
  %6 = alloca i32, align 4
  store ptr %0, ptr %4, align 8, !tbaa !43
  store i32 %1, ptr %5, align 4, !tbaa !8
  store i32 %2, ptr %6, align 4, !tbaa !8
  %7 = load i32, ptr %6, align 4, !tbaa !8
  %8 = load ptr, ptr %4, align 8, !tbaa !43
  %9 = getelementptr inbounds nuw %struct.Vec_Int_t_, ptr %8, i32 0, i32 2
  %10 = load ptr, ptr %9, align 8, !tbaa !48
  %11 = load i32, ptr %5, align 4, !tbaa !8
  %12 = sext i32 %11 to i64
  %13 = getelementptr inbounds i32, ptr %10, i64 %12
  store i32 %7, ptr %13, align 4, !tbaa !8
  ret void
}

; Function Attrs: inlinehint nounwind uwtable
define internal void @Vec_IntFillExtra(ptr noundef %0, i32 noundef %1, i32 noundef %2) #2 {
  %4 = alloca ptr, align 8
  %5 = alloca i32, align 4
  %6 = alloca i32, align 4
  %7 = alloca i32, align 4
  %8 = alloca i32, align 4
  store ptr %0, ptr %4, align 8, !tbaa !43
  store i32 %1, ptr %5, align 4, !tbaa !8
  store i32 %2, ptr %6, align 4, !tbaa !8
  call void @llvm.lifetime.start.p0(i64 4, ptr %7) #9
  %9 = load i32, ptr %5, align 4, !tbaa !8
  %10 = load ptr, ptr %4, align 8, !tbaa !43
  %11 = getelementptr inbounds nuw %struct.Vec_Int_t_, ptr %10, i32 0, i32 1
  %12 = load i32, ptr %11, align 4, !tbaa !47
  %13 = icmp sle i32 %9, %12
  br i1 %13, label %14, label %15

14:                                               ; preds = %3
  store i32 1, ptr %8, align 4
  br label %61

15:                                               ; preds = %3
  %16 = load i32, ptr %5, align 4, !tbaa !8
  %17 = load ptr, ptr %4, align 8, !tbaa !43
  %18 = getelementptr inbounds nuw %struct.Vec_Int_t_, ptr %17, i32 0, i32 0
  %19 = load i32, ptr %18, align 8, !tbaa !54
  %20 = mul nsw i32 2, %19
  %21 = icmp sgt i32 %16, %20
  br i1 %21, label %22, label %25

22:                                               ; preds = %15
  %23 = load ptr, ptr %4, align 8, !tbaa !43
  %24 = load i32, ptr %5, align 4, !tbaa !8
  call void @Vec_IntGrow(ptr noundef %23, i32 noundef %24)
  br label %38

25:                                               ; preds = %15
  %26 = load i32, ptr %5, align 4, !tbaa !8
  %27 = load ptr, ptr %4, align 8, !tbaa !43
  %28 = getelementptr inbounds nuw %struct.Vec_Int_t_, ptr %27, i32 0, i32 0
  %29 = load i32, ptr %28, align 8, !tbaa !54
  %30 = icmp sgt i32 %26, %29
  br i1 %30, label %31, label %37

31:                                               ; preds = %25
  %32 = load ptr, ptr %4, align 8, !tbaa !43
  %33 = load ptr, ptr %4, align 8, !tbaa !43
  %34 = getelementptr inbounds nuw %struct.Vec_Int_t_, ptr %33, i32 0, i32 0
  %35 = load i32, ptr %34, align 8, !tbaa !54
  %36 = mul nsw i32 2, %35
  call void @Vec_IntGrow(ptr noundef %32, i32 noundef %36)
  br label %37

37:                                               ; preds = %31, %25
  br label %38

38:                                               ; preds = %37, %22
  %39 = load ptr, ptr %4, align 8, !tbaa !43
  %40 = getelementptr inbounds nuw %struct.Vec_Int_t_, ptr %39, i32 0, i32 1
  %41 = load i32, ptr %40, align 4, !tbaa !47
  store i32 %41, ptr %7, align 4, !tbaa !8
  br label %42

42:                                               ; preds = %54, %38
  %43 = load i32, ptr %7, align 4, !tbaa !8
  %44 = load i32, ptr %5, align 4, !tbaa !8
  %45 = icmp slt i32 %43, %44
  br i1 %45, label %46, label %57

46:                                               ; preds = %42
  %47 = load i32, ptr %6, align 4, !tbaa !8
  %48 = load ptr, ptr %4, align 8, !tbaa !43
  %49 = getelementptr inbounds nuw %struct.Vec_Int_t_, ptr %48, i32 0, i32 2
  %50 = load ptr, ptr %49, align 8, !tbaa !48
  %51 = load i32, ptr %7, align 4, !tbaa !8
  %52 = sext i32 %51 to i64
  %53 = getelementptr inbounds i32, ptr %50, i64 %52
  store i32 %47, ptr %53, align 4, !tbaa !8
  br label %54

54:                                               ; preds = %46
  %55 = load i32, ptr %7, align 4, !tbaa !8
  %56 = add nsw i32 %55, 1
  store i32 %56, ptr %7, align 4, !tbaa !8
  br label %42, !llvm.loop !55

57:                                               ; preds = %42
  %58 = load i32, ptr %5, align 4, !tbaa !8
  %59 = load ptr, ptr %4, align 8, !tbaa !43
  %60 = getelementptr inbounds nuw %struct.Vec_Int_t_, ptr %59, i32 0, i32 1
  store i32 %58, ptr %60, align 4, !tbaa !47
  store i32 0, ptr %8, align 4
  br label %61

61:                                               ; preds = %57, %14
  call void @llvm.lifetime.end.p0(i64 4, ptr %7) #9
  %62 = load i32, ptr %8, align 4
  switch i32 %62, label %64 [
    i32 0, label %63
    i32 1, label %63
  ]

63:                                               ; preds = %61, %61
  ret void

64:                                               ; preds = %61
  unreachable
}

; Function Attrs: inlinehint nounwind uwtable
define internal void @Vec_IntSetEntry(ptr noundef %0, i32 noundef %1, i32 noundef %2) #2 {
  %4 = alloca ptr, align 8
  %5 = alloca i32, align 4
  %6 = alloca i32, align 4
  store ptr %0, ptr %4, align 8, !tbaa !43
  store i32 %1, ptr %5, align 4, !tbaa !8
  store i32 %2, ptr %6, align 4, !tbaa !8
  %7 = load ptr, ptr %4, align 8, !tbaa !43
  %8 = load i32, ptr %5, align 4, !tbaa !8
  %9 = add nsw i32 %8, 1
  call void @Vec_IntFillExtra(ptr noundef %7, i32 noundef %9, i32 noundef 0)
  %10 = load ptr, ptr %4, align 8, !tbaa !43
  %11 = load i32, ptr %5, align 4, !tbaa !8
  %12 = load i32, ptr %6, align 4, !tbaa !8
  call void @Vec_IntWriteEntry(ptr noundef %10, i32 noundef %11, i32 noundef %12)
  ret void
}

; Function Attrs: inlinehint nounwind uwtable
define internal void @Vec_IntGrow(ptr noundef %0, i32 noundef %1) #2 {
  %3 = alloca ptr, align 8
  %4 = alloca i32, align 4
  store ptr %0, ptr %3, align 8, !tbaa !43
  store i32 %1, ptr %4, align 4, !tbaa !8
  %5 = load ptr, ptr %3, align 8, !tbaa !43
  %6 = getelementptr inbounds nuw %struct.Vec_Int_t_, ptr %5, i32 0, i32 0
  %7 = load i32, ptr %6, align 8, !tbaa !54
  %8 = load i32, ptr %4, align 4, !tbaa !8
  %9 = icmp sge i32 %7, %8
  br i1 %9, label %10, label %11

10:                                               ; preds = %2
  br label %36

11:                                               ; preds = %2
  %12 = load ptr, ptr %3, align 8, !tbaa !43
  %13 = getelementptr inbounds nuw %struct.Vec_Int_t_, ptr %12, i32 0, i32 2
  %14 = load ptr, ptr %13, align 8, !tbaa !48
  %15 = icmp ne ptr %14, null
  br i1 %15, label %16, label %24

16:                                               ; preds = %11
  %17 = load ptr, ptr %3, align 8, !tbaa !43
  %18 = getelementptr inbounds nuw %struct.Vec_Int_t_, ptr %17, i32 0, i32 2
  %19 = load ptr, ptr %18, align 8, !tbaa !48
  %20 = load i32, ptr %4, align 4, !tbaa !8
  %21 = sext i32 %20 to i64
  %22 = mul i64 4, %21
  %23 = call ptr @realloc(ptr noundef %19, i64 noundef %22) #12
  br label %29

24:                                               ; preds = %11
  %25 = load i32, ptr %4, align 4, !tbaa !8
  %26 = sext i32 %25 to i64
  %27 = mul i64 4, %26
  %28 = call noalias ptr @malloc(i64 noundef %27) #10
  br label %29

29:                                               ; preds = %24, %16
  %30 = phi ptr [ %23, %16 ], [ %28, %24 ]
  %31 = load ptr, ptr %3, align 8, !tbaa !43
  %32 = getelementptr inbounds nuw %struct.Vec_Int_t_, ptr %31, i32 0, i32 2
  store ptr %30, ptr %32, align 8, !tbaa !48
  %33 = load i32, ptr %4, align 4, !tbaa !8
  %34 = load ptr, ptr %3, align 8, !tbaa !43
  %35 = getelementptr inbounds nuw %struct.Vec_Int_t_, ptr %34, i32 0, i32 0
  store i32 %33, ptr %35, align 8, !tbaa !54
  br label %36

36:                                               ; preds = %29, %10
  ret void
}

; Function Attrs: inlinehint nounwind uwtable
define internal void @Abc_NodeSetTravId(ptr noundef %0, i32 noundef %1) #2 {
  %3 = alloca ptr, align 8
  %4 = alloca i32, align 4
  store ptr %0, ptr %3, align 8, !tbaa !26
  store i32 %1, ptr %4, align 4, !tbaa !8
  %5 = load ptr, ptr %3, align 8, !tbaa !26
  %6 = call ptr @Abc_ObjNtk(ptr noundef %5)
  %7 = getelementptr inbounds nuw %struct.Abc_Ntk_t_, ptr %6, i32 0, i32 27
  %8 = load ptr, ptr %3, align 8, !tbaa !26
  %9 = call i32 @Abc_ObjId(ptr noundef %8)
  %10 = load i32, ptr %4, align 4, !tbaa !8
  call void @Vec_IntSetEntry(ptr noundef %7, i32 noundef %9, i32 noundef %10)
  ret void
}

; Function Attrs: inlinehint nounwind uwtable
define internal ptr @Abc_ObjNtk(ptr noundef %0) #2 {
  %2 = alloca ptr, align 8
  store ptr %0, ptr %2, align 8, !tbaa !26
  %3 = load ptr, ptr %2, align 8, !tbaa !26
  %4 = getelementptr inbounds nuw %struct.Abc_Obj_t_, ptr %3, i32 0, i32 0
  %5 = load ptr, ptr %4, align 8, !tbaa !37
  ret ptr %5
}

; Function Attrs: inlinehint nounwind uwtable
define internal void @Vec_IntPush(ptr noundef %0, i32 noundef %1) #2 {
  %3 = alloca ptr, align 8
  %4 = alloca i32, align 4
  store ptr %0, ptr %3, align 8, !tbaa !43
  store i32 %1, ptr %4, align 4, !tbaa !8
  %5 = load ptr, ptr %3, align 8, !tbaa !43
  %6 = getelementptr inbounds nuw %struct.Vec_Int_t_, ptr %5, i32 0, i32 1
  %7 = load i32, ptr %6, align 4, !tbaa !47
  %8 = load ptr, ptr %3, align 8, !tbaa !43
  %9 = getelementptr inbounds nuw %struct.Vec_Int_t_, ptr %8, i32 0, i32 0
  %10 = load i32, ptr %9, align 8, !tbaa !54
  %11 = icmp eq i32 %7, %10
  br i1 %11, label %12, label %26

12:                                               ; preds = %2
  %13 = load ptr, ptr %3, align 8, !tbaa !43
  %14 = getelementptr inbounds nuw %struct.Vec_Int_t_, ptr %13, i32 0, i32 0
  %15 = load i32, ptr %14, align 8, !tbaa !54
  %16 = icmp slt i32 %15, 16
  br i1 %16, label %17, label %19

17:                                               ; preds = %12
  %18 = load ptr, ptr %3, align 8, !tbaa !43
  call void @Vec_IntGrow(ptr noundef %18, i32 noundef 16)
  br label %25

19:                                               ; preds = %12
  %20 = load ptr, ptr %3, align 8, !tbaa !43
  %21 = load ptr, ptr %3, align 8, !tbaa !43
  %22 = getelementptr inbounds nuw %struct.Vec_Int_t_, ptr %21, i32 0, i32 0
  %23 = load i32, ptr %22, align 8, !tbaa !54
  %24 = mul nsw i32 2, %23
  call void @Vec_IntGrow(ptr noundef %20, i32 noundef %24)
  br label %25

25:                                               ; preds = %19, %17
  br label %26

26:                                               ; preds = %25, %2
  %27 = load i32, ptr %4, align 4, !tbaa !8
  %28 = load ptr, ptr %3, align 8, !tbaa !43
  %29 = getelementptr inbounds nuw %struct.Vec_Int_t_, ptr %28, i32 0, i32 2
  %30 = load ptr, ptr %29, align 8, !tbaa !48
  %31 = load ptr, ptr %3, align 8, !tbaa !43
  %32 = getelementptr inbounds nuw %struct.Vec_Int_t_, ptr %31, i32 0, i32 1
  %33 = load i32, ptr %32, align 4, !tbaa !47
  %34 = add nsw i32 %33, 1
  store i32 %34, ptr %32, align 4, !tbaa !47
  %35 = sext i32 %33 to i64
  %36 = getelementptr inbounds i32, ptr %30, i64 %35
  store i32 %27, ptr %36, align 4, !tbaa !8
  ret void
}

; Function Attrs: inlinehint nounwind uwtable
define internal i32 @Abc_ObjId(ptr noundef %0) #2 {
  %2 = alloca ptr, align 8
  store ptr %0, ptr %2, align 8, !tbaa !26
  %3 = load ptr, ptr %2, align 8, !tbaa !26
  %4 = getelementptr inbounds nuw %struct.Abc_Obj_t_, ptr %3, i32 0, i32 2
  %5 = load i32, ptr %4, align 8, !tbaa !41
  ret i32 %5
}

; Function Attrs: inlinehint nounwind uwtable
define internal ptr @Abc_ObjFanin(ptr noundef %0, i32 noundef %1) #2 {
  %3 = alloca ptr, align 8
  %4 = alloca i32, align 4
  store ptr %0, ptr %3, align 8, !tbaa !26
  store i32 %1, ptr %4, align 4, !tbaa !8
  %5 = load ptr, ptr %3, align 8, !tbaa !26
  %6 = getelementptr inbounds nuw %struct.Abc_Obj_t_, ptr %5, i32 0, i32 0
  %7 = load ptr, ptr %6, align 8, !tbaa !37
  %8 = getelementptr inbounds nuw %struct.Abc_Ntk_t_, ptr %7, i32 0, i32 5
  %9 = load ptr, ptr %8, align 8, !tbaa !10
  %10 = getelementptr inbounds nuw %struct.Vec_Ptr_t_, ptr %9, i32 0, i32 2
  %11 = load ptr, ptr %10, align 8, !tbaa !38
  %12 = load ptr, ptr %3, align 8, !tbaa !26
  %13 = getelementptr inbounds nuw %struct.Abc_Obj_t_, ptr %12, i32 0, i32 4
  %14 = getelementptr inbounds nuw %struct.Vec_Int_t_, ptr %13, i32 0, i32 2
  %15 = load ptr, ptr %14, align 8, !tbaa !39
  %16 = load i32, ptr %4, align 4, !tbaa !8
  %17 = sext i32 %16 to i64
  %18 = getelementptr inbounds i32, ptr %15, i64 %17
  %19 = load i32, ptr %18, align 4, !tbaa !8
  %20 = sext i32 %19 to i64
  %21 = getelementptr inbounds ptr, ptr %11, i64 %20
  %22 = load ptr, ptr %21, align 8, !tbaa !40
  ret ptr %22
}

; Function Attrs: inlinehint nounwind uwtable
define internal i32 @Abc_ObjFaninNum(ptr noundef %0) #2 {
  %2 = alloca ptr, align 8
  store ptr %0, ptr %2, align 8, !tbaa !26
  %3 = load ptr, ptr %2, align 8, !tbaa !26
  %4 = getelementptr inbounds nuw %struct.Abc_Obj_t_, ptr %3, i32 0, i32 4
  %5 = getelementptr inbounds nuw %struct.Vec_Int_t_, ptr %4, i32 0, i32 1
  %6 = load i32, ptr %5, align 4, !tbaa !35
  ret i32 %6
}

; Function Attrs: inlinehint nounwind uwtable
define internal i32 @Abc_ObjIsCi(ptr noundef %0) #2 {
  %2 = alloca ptr, align 8
  store ptr %0, ptr %2, align 8, !tbaa !26
  %3 = load ptr, ptr %2, align 8, !tbaa !26
  %4 = getelementptr inbounds nuw %struct.Abc_Obj_t_, ptr %3, i32 0, i32 3
  %5 = load i32, ptr %4, align 4
  %6 = and i32 %5, 15
  %7 = icmp eq i32 %6, 2
  br i1 %7, label %14, label %8

8:                                                ; preds = %1
  %9 = load ptr, ptr %2, align 8, !tbaa !26
  %10 = getelementptr inbounds nuw %struct.Abc_Obj_t_, ptr %9, i32 0, i32 3
  %11 = load i32, ptr %10, align 4
  %12 = and i32 %11, 15
  %13 = icmp eq i32 %12, 5
  br label %14

14:                                               ; preds = %8, %1
  %15 = phi i1 [ true, %1 ], [ %13, %8 ]
  %16 = zext i1 %15 to i32
  ret i32 %16
}

; Function Attrs: inlinehint nounwind uwtable
define internal void @Abc_NodeSetTravIdCurrent(ptr noundef %0) #2 {
  %2 = alloca ptr, align 8
  store ptr %0, ptr %2, align 8, !tbaa !26
  %3 = load ptr, ptr %2, align 8, !tbaa !26
  %4 = load ptr, ptr %2, align 8, !tbaa !26
  %5 = call ptr @Abc_ObjNtk(ptr noundef %4)
  %6 = getelementptr inbounds nuw %struct.Abc_Ntk_t_, ptr %5, i32 0, i32 26
  %7 = load i32, ptr %6, align 8, !tbaa !62
  call void @Abc_NodeSetTravId(ptr noundef %3, i32 noundef %7)
  ret void
}

; Function Attrs: nounwind uwtable
define void @Abc_BufCollectTfiCone_rec(ptr noundef %0, ptr noundef %1) #0 {
  %3 = alloca ptr, align 8
  %4 = alloca ptr, align 8
  %5 = alloca ptr, align 8
  %6 = alloca i32, align 4
  %7 = alloca i32, align 4
  store ptr %0, ptr %3, align 8, !tbaa !26
  store ptr %1, ptr %4, align 8, !tbaa !43
  call void @llvm.lifetime.start.p0(i64 8, ptr %5) #9
  call void @llvm.lifetime.start.p0(i64 4, ptr %6) #9
  %8 = load ptr, ptr %3, align 8, !tbaa !26
  %9 = call i32 @Abc_NodeIsTravIdCurrent(ptr noundef %8)
  %10 = icmp ne i32 %9, 0
  br i1 %10, label %11, label %12

11:                                               ; preds = %2
  store i32 1, ptr %7, align 4
  br label %40

12:                                               ; preds = %2
  %13 = load ptr, ptr %3, align 8, !tbaa !26
  call void @Abc_NodeSetTravIdCurrent(ptr noundef %13)
  %14 = load ptr, ptr %3, align 8, !tbaa !26
  %15 = call i32 @Abc_ObjIsCi(ptr noundef %14)
  %16 = icmp ne i32 %15, 0
  br i1 %16, label %17, label %18

17:                                               ; preds = %12
  store i32 1, ptr %7, align 4
  br label %40

18:                                               ; preds = %12
  store i32 0, ptr %6, align 4, !tbaa !8
  br label %19

19:                                               ; preds = %33, %18
  %20 = load i32, ptr %6, align 4, !tbaa !8
  %21 = load ptr, ptr %3, align 8, !tbaa !26
  %22 = call i32 @Abc_ObjFaninNum(ptr noundef %21)
  %23 = icmp slt i32 %20, %22
  br i1 %23, label %24, label %28

24:                                               ; preds = %19
  %25 = load ptr, ptr %3, align 8, !tbaa !26
  %26 = load i32, ptr %6, align 4, !tbaa !8
  %27 = call ptr @Abc_ObjFanin(ptr noundef %25, i32 noundef %26)
  store ptr %27, ptr %5, align 8, !tbaa !26
  br label %28

28:                                               ; preds = %24, %19
  %29 = phi i1 [ false, %19 ], [ true, %24 ]
  br i1 %29, label %30, label %36

30:                                               ; preds = %28
  %31 = load ptr, ptr %5, align 8, !tbaa !26
  %32 = load ptr, ptr %4, align 8, !tbaa !43
  call void @Abc_BufCollectTfiCone_rec(ptr noundef %31, ptr noundef %32)
  br label %33

33:                                               ; preds = %30
  %34 = load i32, ptr %6, align 4, !tbaa !8
  %35 = add nsw i32 %34, 1
  store i32 %35, ptr %6, align 4, !tbaa !8
  br label %19, !llvm.loop !119

36:                                               ; preds = %28
  %37 = load ptr, ptr %4, align 8, !tbaa !43
  %38 = load ptr, ptr %3, align 8, !tbaa !26
  %39 = call i32 @Abc_ObjId(ptr noundef %38)
  call void @Vec_IntPush(ptr noundef %37, i32 noundef %39)
  store i32 0, ptr %7, align 4
  br label %40

40:                                               ; preds = %36, %17, %11
  call void @llvm.lifetime.end.p0(i64 4, ptr %6) #9
  call void @llvm.lifetime.end.p0(i64 8, ptr %5) #9
  %41 = load i32, ptr %7, align 4
  switch i32 %41, label %43 [
    i32 0, label %42
    i32 1, label %42
  ]

42:                                               ; preds = %40, %40
  ret void

43:                                               ; preds = %40
  unreachable
}