; Function Attrs: nounwind uwtable
define void @Abc_BufCollectTfiCone_rec(ptr noundef readonly captures(none) %0, ptr noundef captures(none) %1) local_unnamed_addr #2 {
  %3 = tail call fastcc i32 @Abc_NodeIsTravIdCurrent(ptr noundef %0)
  %.not = icmp eq i32 %3, 0
  br i1 %.not, label %4, label %97

4:                                                ; preds = %2
  %.val16 = load ptr, ptr %0, align 8, !tbaa !31
  %5 = getelementptr i8, ptr %0, i64 16
  %.val17 = load i32, ptr %5, align 8, !tbaa !34
  %6 = getelementptr inbounds nuw i8, ptr %.val16, i64 216
  %7 = load i32, ptr %6, align 8, !tbaa !55
  %8 = getelementptr inbounds nuw i8, ptr %.val16, i64 224
  %9 = add nsw i32 %.val17, 1
  %10 = getelementptr inbounds nuw i8, ptr %.val16, i64 228
  %11 = load i32, ptr %10, align 4, !tbaa !50
  %.not.i.not.i.i.i = icmp slt i32 %.val17, %11
  br i1 %.not.i.not.i.i.i, label %Abc_NodeSetTravIdCurrent.exit, label %12

12:                                               ; preds = %4
  %13 = load i32, ptr %8, align 8, !tbaa !51
  %14 = shl nsw i32 %13, 1
  %.not.i.i.i = icmp slt i32 %.val17, %14
  %.not.i.i.not.i.i.i = icmp sgt i32 %13, %.val17
  br i1 %.not.i.i.i, label %27, label %15

15:                                               ; preds = %12
  br i1 %.not.i.i.not.i.i.i, label %Vec_IntGrow.exit.i.i.i.i, label %16

16:                                               ; preds = %15
  %17 = getelementptr inbounds nuw i8, ptr %.val16, i64 232
  %18 = load ptr, ptr %17, align 8, !tbaa !45
  %.not9.i.i.i.i.i = icmp eq ptr %18, null
  %19 = sext i32 %9 to i64
  %20 = shl nsw i64 %19, 2
  br i1 %.not9.i.i.i.i.i, label %23, label %21

21:                                               ; preds = %16
  %22 = tail call ptr @realloc(ptr noundef nonnull %18, i64 noundef %20) #19
  br label %25

23:                                               ; preds = %16
  %24 = tail call noalias ptr @malloc(i64 noundef %20) #18
  br label %25

25:                                               ; preds = %23, %21
  %26 = phi ptr [ %22, %21 ], [ %24, %23 ]
  store ptr %26, ptr %17, align 8, !tbaa !45
  br label %Vec_IntGrow.exit.sink.split.i.i.i.i

27:                                               ; preds = %12
  br i1 %.not.i.i.not.i.i.i, label %Vec_IntGrow.exit.i.i.i.i, label %28

28:                                               ; preds = %27
  %29 = getelementptr inbounds nuw i8, ptr %.val16, i64 232
  %30 = load ptr, ptr %29, align 8, !tbaa !45
  %.not9.i21.i.i.i.i = icmp eq ptr %30, null
  %31 = sext i32 %14 to i64
  %32 = shl nsw i64 %31, 2
  br i1 %.not9.i21.i.i.i.i, label %35, label %33

33:                                               ; preds = %28
  %34 = tail call ptr @realloc(ptr noundef nonnull %30, i64 noundef %32) #19
  br label %37

35:                                               ; preds = %28
  %36 = tail call noalias ptr @malloc(i64 noundef %32) #18
  br label %37

37:                                               ; preds = %35, %33
  %38 = phi ptr [ %34, %33 ], [ %36, %35 ]
  store ptr %38, ptr %29, align 8, !tbaa !45
  br label %Vec_IntGrow.exit.sink.split.i.i.i.i

Vec_IntGrow.exit.sink.split.i.i.i.i:              ; preds = %37, %25
  %.sink.i.i.i.i = phi i32 [ %14, %37 ], [ %9, %25 ]
  store i32 %.sink.i.i.i.i, ptr %8, align 8, !tbaa !51
  %.pre.i.i.i = load i32, ptr %10, align 4, !tbaa !50
  br label %Vec_IntGrow.exit.i.i.i.i

Vec_IntGrow.exit.i.i.i.i:                         ; preds = %Vec_IntGrow.exit.sink.split.i.i.i.i, %27, %15
  %39 = phi i32 [ %.pre.i.i.i, %Vec_IntGrow.exit.sink.split.i.i.i.i ], [ %11, %27 ], [ %11, %15 ]
  %.not4.i.i.i = icmp sgt i32 %39, %.val17
  br i1 %.not4.i.i.i, label %._crit_edge.i.i.i.i, label %.lr.ph.i.i.i.i

.lr.ph.i.i.i.i:                                   ; preds = %Vec_IntGrow.exit.i.i.i.i
  %40 = getelementptr inbounds nuw i8, ptr %.val16, i64 232
  %41 = load ptr, ptr %40, align 8, !tbaa !45
  %42 = sext i32 %39 to i64
  %43 = shl nsw i64 %42, 2
  %scevgep.i.i.i.i = getelementptr i8, ptr %41, i64 %43
  %44 = sub i32 %.val17, %39
  %45 = zext i32 %44 to i64
  %46 = shl nuw nsw i64 %45, 2
  %47 = add nuw nsw i64 %46, 4
  tail call void @llvm.memset.p0.i64(ptr noundef nonnull align 4 dereferenceable(1) %scevgep.i.i.i.i, i8 0, i64 %47, i1 false), !tbaa !33
  br label %._crit_edge.i.i.i.i

._crit_edge.i.i.i.i:                              ; preds = %.lr.ph.i.i.i.i, %Vec_IntGrow.exit.i.i.i.i
  store i32 %9, ptr %10, align 4, !tbaa !50
  br label %Abc_NodeSetTravIdCurrent.exit

Abc_NodeSetTravIdCurrent.exit:                    ; preds = %4, %._crit_edge.i.i.i.i
  %48 = getelementptr i8, ptr %.val16, i64 232
  %.val.i.i.i = load ptr, ptr %48, align 8, !tbaa !45
  %49 = sext i32 %.val17 to i64
  %50 = getelementptr inbounds i32, ptr %.val.i.i.i, i64 %49
  store i32 %7, ptr %50, align 4, !tbaa !33
  %51 = getelementptr i8, ptr %0, i64 20
  %.val15 = load i32, ptr %51, align 4
  %52 = and i32 %.val15, 15
  switch i32 %52, label %.preheader [
    i32 5, label %97
    i32 2, label %97
  ]

.preheader:                                       ; preds = %Abc_NodeSetTravIdCurrent.exit
  %53 = getelementptr i8, ptr %0, i64 28
  %.val20 = load i32, ptr %53, align 4, !tbaa !28
  %54 = icmp sgt i32 %.val20, 0
  br i1 %54, label %.lr.ph, label %.critedge

.lr.ph:                                           ; preds = %.preheader
  %55 = getelementptr i8, ptr %0, i64 32
  br label %56

56:                                               ; preds = %.lr.ph, %56
  %indvars.iv = phi i64 [ 0, %.lr.ph ], [ %indvars.iv.next, %56 ]
  %.val12 = load ptr, ptr %0, align 8, !tbaa !31
  %.val13 = load ptr, ptr %55, align 8, !tbaa !32
  %57 = getelementptr i8, ptr %.val12, i64 32
  %.val12.val = load ptr, ptr %57, align 8, !tbaa !3
  %58 = getelementptr i8, ptr %.val12.val, i64 8
  %.val12.val.val = load ptr, ptr %58, align 8, !tbaa !26
  %59 = getelementptr inbounds nuw i32, ptr %.val13, i64 %indvars.iv
  %60 = load i32, ptr %59, align 4, !tbaa !33
  %61 = sext i32 %60 to i64
  %62 = getelementptr inbounds ptr, ptr %.val12.val.val, i64 %61
  %63 = load ptr, ptr %62, align 8, !tbaa !27
  tail call void @Abc_BufCollectTfiCone_rec(ptr noundef %63, ptr noundef %1)
  %indvars.iv.next = add nuw nsw i64 %indvars.iv, 1
  %.val = load i32, ptr %53, align 4, !tbaa !28
  %64 = sext i32 %.val to i64
  %65 = icmp slt i64 %indvars.iv.next, %64
  br i1 %65, label %56, label %.critedge, !llvm.loop !113

.critedge:                                        ; preds = %56, %.preheader
  %.val14 = load i32, ptr %5, align 8, !tbaa !34
  %66 = getelementptr inbounds nuw i8, ptr %1, i64 4
  %67 = load i32, ptr %66, align 4, !tbaa !50
  %68 = load i32, ptr %1, align 8, !tbaa !51
  %69 = icmp eq i32 %67, %68
  br i1 %69, label %70, label %.Vec_IntGrow.exit10_crit_edge.i

.Vec_IntGrow.exit10_crit_edge.i:                  ; preds = %.critedge
  %.phi.trans.insert.i = getelementptr inbounds nuw i8, ptr %1, i64 8
  %.pre.i = load ptr, ptr %.phi.trans.insert.i, align 8, !tbaa !45
  br label %Vec_IntPush.exit

70:                                               ; preds = %.critedge
  %71 = icmp slt i32 %67, 16
  br i1 %71, label %72, label %80

72:                                               ; preds = %70
  %73 = getelementptr inbounds nuw i8, ptr %1, i64 8
  %74 = load ptr, ptr %73, align 8, !tbaa !45
  %.not9.i.i = icmp eq ptr %74, null
  br i1 %.not9.i.i, label %77, label %75

75:                                               ; preds = %72
  %76 = tail call dereferenceable_or_null(64) ptr @realloc(ptr noundef nonnull %74, i64 noundef 64) #19
  br label %Vec_IntGrow.exit.i

77:                                               ; preds = %72
  %78 = tail call noalias dereferenceable_or_null(64) ptr @malloc(i64 noundef 64) #18
  br label %Vec_IntGrow.exit.i

Vec_IntGrow.exit.i:                               ; preds = %77, %75
  %79 = phi ptr [ %76, %75 ], [ %78, %77 ]
  store ptr %79, ptr %73, align 8, !tbaa !45
  store i32 16, ptr %1, align 8, !tbaa !51
  br label %Vec_IntPush.exit

80:                                               ; preds = %70
  %81 = shl nuw nsw i32 %67, 1
  %82 = getelementptr inbounds nuw i8, ptr %1, i64 8
  %83 = load ptr, ptr %82, align 8, !tbaa !45
  %.not9.i9.i = icmp eq ptr %83, null
  %84 = zext nneg i32 %81 to i64
  %85 = shl nuw nsw i64 %84, 2
  br i1 %.not9.i9.i, label %88, label %86

86:                                               ; preds = %80
  %87 = tail call ptr @realloc(ptr noundef nonnull %83, i64 noundef %85) #19
  br label %90

88:                                               ; preds = %80
  %89 = tail call noalias ptr @malloc(i64 noundef %85) #18
  br label %90

90:                                               ; preds = %88, %86
  %91 = phi ptr [ %87, %86 ], [ %89, %88 ]
  store ptr %91, ptr %82, align 8, !tbaa !45
  store i32 %81, ptr %1, align 8, !tbaa !51
  br label %Vec_IntPush.exit

Vec_IntPush.exit:                                 ; preds = %.Vec_IntGrow.exit10_crit_edge.i, %Vec_IntGrow.exit.i, %90
  %92 = phi ptr [ %.pre.i, %.Vec_IntGrow.exit10_crit_edge.i ], [ %91, %90 ], [ %79, %Vec_IntGrow.exit.i ]
  %93 = load i32, ptr %66, align 4, !tbaa !50
  %94 = add nsw i32 %93, 1
  store i32 %94, ptr %66, align 4, !tbaa !50
  %95 = sext i32 %93 to i64
  %96 = getelementptr inbounds i32, ptr %92, i64 %95
  store i32 %.val14, ptr %96, align 4, !tbaa !33
  br label %97

97:                                               ; preds = %Abc_NodeSetTravIdCurrent.exit, %Abc_NodeSetTravIdCurrent.exit, %2, %Vec_IntPush.exit
  ret void
}